target datalayout = "e-m:e-p270:32:32-p271:32:32-p272:64:64-i64:64-i128:128-f80:128-n8:16:32:64-S128"
target triple = "x86_64-unknown-linux-gnu"

%struct.v3_ext_method = type { i32, i32, ptr, ptr, ptr, ptr, ptr, ptr, ptr, ptr, ptr, ptr, ptr, ptr }
%struct.v3_ext_ctx = type { i32, ptr, ptr, ptr, ptr, ptr, ptr }

@.str = private unnamed_addr constant [127 x i8] c"generated/home/dtcxzyw/WorkSpace/Projects/compilers/llvm-opt-benchmark/bench/libquic/libquic/boringssl/crypto/x509v3/v3_conf.c\00", align 1
@.str.1 = private unnamed_addr constant [6 x i8] c"name=\00", align 1
@.str.3 = private unnamed_addr constant [10 x i8] c",section=\00", align 1

; Function Attrs: nounwind uwtable
define internal ptr @do_ext_nconf(ptr noundef %conf, ptr noundef %ctx, i32 noundef %ext_nid, i32 noundef %crit, ptr noundef %value) #0 {
entry:
  %retval = alloca ptr, align 8
  %conf.addr = alloca ptr, align 8
  %ctx.addr = alloca ptr, align 8
  %ext_nid.addr = alloca i32, align 4
  %crit.addr = alloca i32, align 4
  %value.addr = alloca ptr, align 8
  %method = alloca ptr, align 8
  %ext = alloca ptr, align 8
  %nval = alloca ptr, align 8
  %ext_struc = alloca ptr, align 8
  store ptr %conf, ptr %conf.addr, align 8
  store ptr %ctx, ptr %ctx.addr, align 8
  store i32 %ext_nid, ptr %ext_nid.addr, align 4
  store i32 %crit, ptr %crit.addr, align 4
  store ptr %value, ptr %value.addr, align 8
  %0 = load i32, ptr %ext_nid.addr, align 4
  %cmp = icmp eq i32 %0, 0
  br i1 %cmp, label %if.then, label %if.end

if.then:                                          ; preds = %entry
  call void @ERR_put_error(i32 noundef 20, i32 noundef 0, i32 noundef 158, ptr noundef @.str, i32 noundef 128)
  store ptr null, ptr %retval, align 8
  br label %return

if.end:                                           ; preds = %entry
  %1 = load i32, ptr %ext_nid.addr, align 4
  %call = call ptr @X509V3_EXT_get_nid(i32 noundef %1)
  store ptr %call, ptr %method, align 8
  %tobool = icmp ne ptr %call, null
  br i1 %tobool, label %if.end2, label %if.then1

if.then1:                                         ; preds = %if.end
  call void @ERR_put_error(i32 noundef 20, i32 noundef 0, i32 noundef 157, ptr noundef @.str, i32 noundef 132)
  store ptr null, ptr %retval, align 8
  br label %return

if.end2:                                          ; preds = %if.end
  %2 = load ptr, ptr %method, align 8
  %v2i = getelementptr inbounds %struct.v3_ext_method, ptr %2, i32 0, i32 10
  %3 = load ptr, ptr %v2i, align 8
  %tobool3 = icmp ne ptr %3, null
  br i1 %tobool3, label %if.then4, label %if.else27

if.then4:                                         ; preds = %if.end2
  %4 = load ptr, ptr %value.addr, align 8
  %5 = load i8, ptr %4, align 1
  %conv = sext i8 %5 to i32
  %cmp5 = icmp eq i32 %conv, 64
  br i1 %cmp5, label %if.then7, label %if.else

if.then7:                                         ; preds = %if.then4
  %6 = load ptr, ptr %conf.addr, align 8
  %7 = load ptr, ptr %value.addr, align 8
  %add.ptr = getelementptr inbounds i8, ptr %7, i64 1
  %call8 = call ptr @NCONF_get_section(ptr noundef %6, ptr noundef %add.ptr)
  store ptr %call8, ptr %nval, align 8
  br label %if.end10

if.else:                                          ; preds = %if.then4
  %8 = load ptr, ptr %value.addr, align 8
  %call9 = call ptr @X509V3_parse_list(ptr noundef %8)
  store ptr %call9, ptr %nval, align 8
  br label %if.end10

if.end10:                                         ; preds = %if.else, %if.then7
  %9 = load ptr, ptr %nval, align 8
  %call11 = call i64 @sk_num(ptr noundef %9)
  %cmp12 = icmp ule i64 %call11, 0
  br i1 %cmp12, label %if.then14, label %if.end16

if.then14:                                        ; preds = %if.end10
  call void @ERR_put_error(i32 noundef 20, i32 noundef 0, i32 noundef 121, ptr noundef @.str, i32 noundef 142)
  %10 = load i32, ptr %ext_nid.addr, align 4
  %call15 = call ptr @OBJ_nid2sn(i32 noundef %10)
  %11 = load ptr, ptr %value.addr, align 8
  call void (i32, ...) @ERR_add_error_data(i32 noundef 4, ptr noundef @.str.1, ptr noundef %call15, ptr noundef @.str.3, ptr noundef %11)
  store ptr null, ptr %retval, align 8
  br label %return

if.end16:                                         ; preds = %if.end10
  %12 = load ptr, ptr %method, align 8
  %v2i17 = getelementptr inbounds %struct.v3_ext_method, ptr %12, i32 0, i32 10
  %13 = load ptr, ptr %v2i17, align 8
  %14 = load ptr, ptr %method, align 8
  %15 = load ptr, ptr %ctx.addr, align 8
  %16 = load ptr, ptr %nval, align 8
  %call18 = call ptr %13(ptr noundef %14, ptr noundef %15, ptr noundef %16)
  store ptr %call18, ptr %ext_struc, align 8
  %17 = load ptr, ptr %value.addr, align 8
  %18 = load i8, ptr %17, align 1
  %conv19 = sext i8 %18 to i32
  %cmp20 = icmp ne i32 %conv19, 64
  br i1 %cmp20, label %if.then22, label %if.end23

if.then22:                                        ; preds = %if.end16
  %19 = load ptr, ptr %nval, align 8
  call void @sk_pop_free(ptr noundef %19, ptr noundef @X509V3_conf_free)
  br label %if.end23

if.end23:                                         ; preds = %if.then22, %if.end16
  %20 = load ptr, ptr %ext_struc, align 8
  %tobool24 = icmp ne ptr %20, null
  br i1 %tobool24, label %if.end26, label %if.then25

if.then25:                                        ; preds = %if.end23
  store ptr null, ptr %retval, align 8
  br label %return

if.end26:                                         ; preds = %if.end23
  br label %if.end51

if.else27:                                        ; preds = %if.end2
  %21 = load ptr, ptr %method, align 8
  %s2i = getelementptr inbounds %struct.v3_ext_method, ptr %21, i32 0, i32 8
  %22 = load ptr, ptr %s2i, align 8
  %tobool28 = icmp ne ptr %22, null
  br i1 %tobool28, label %if.then29, label %if.else35

if.then29:                                        ; preds = %if.else27
  %23 = load ptr, ptr %method, align 8
  %s2i30 = getelementptr inbounds %struct.v3_ext_method, ptr %23, i32 0, i32 8
  %24 = load ptr, ptr %s2i30, align 8
  %25 = load ptr, ptr %method, align 8
  %26 = load ptr, ptr %ctx.addr, align 8
  %27 = load ptr, ptr %value.addr, align 8
  %call31 = call ptr %24(ptr noundef %25, ptr noundef %26, ptr noundef %27)
  store ptr %call31, ptr %ext_struc, align 8
  %tobool32 = icmp ne ptr %call31, null
  br i1 %tobool32, label %if.end34, label %if.then33

if.then33:                                        ; preds = %if.then29
  store ptr null, ptr %retval, align 8
  br label %return

if.end34:                                         ; preds = %if.then29
  br label %if.end50

if.else35:                                        ; preds = %if.else27
  %28 = load ptr, ptr %method, align 8
  %r2i = getelementptr inbounds %struct.v3_ext_method, ptr %28, i32 0, i32 12
  %29 = load ptr, ptr %r2i, align 8
  %tobool36 = icmp ne ptr %29, null
  br i1 %tobool36, label %if.then37, label %if.else47

if.then37:                                        ; preds = %if.else35
  %30 = load ptr, ptr %ctx.addr, align 8
  %db = getelementptr inbounds %struct.v3_ext_ctx, ptr %30, i32 0, i32 6
  %31 = load ptr, ptr %db, align 8
  %tobool38 = icmp ne ptr %31, null
  br i1 %tobool38, label %lor.lhs.false, label %if.then40

lor.lhs.false:                                    ; preds = %if.then37
  %32 = load ptr, ptr %ctx.addr, align 8
  %db_meth = getelementptr inbounds %struct.v3_ext_ctx, ptr %32, i32 0, i32 5
  %33 = load ptr, ptr %db_meth, align 8
  %tobool39 = icmp ne ptr %33, null
  br i1 %tobool39, label %if.end41, label %if.then40

if.then40:                                        ; preds = %lor.lhs.false, %if.then37
  call void @ERR_put_error(i32 noundef 20, i32 noundef 0, i32 noundef 139, ptr noundef @.str, i32 noundef 157)
  store ptr null, ptr %retval, align 8
  br label %return

if.end41:                                         ; preds = %lor.lhs.false
  %34 = load ptr, ptr %method, align 8
  %r2i42 = getelementptr inbounds %struct.v3_ext_method, ptr %34, i32 0, i32 12
  %35 = load ptr, ptr %r2i42, align 8
  %36 = load ptr, ptr %method, align 8
  %37 = load ptr, ptr %ctx.addr, align 8
  %38 = load ptr, ptr %value.addr, align 8
  %call43 = call ptr %35(ptr noundef %36, ptr noundef %37, ptr noundef %38)
  store ptr %call43, ptr %ext_struc, align 8
  %tobool44 = icmp ne ptr %call43, null
  br i1 %tobool44, label %if.end46, label %if.then45

if.then45:                                        ; preds = %if.end41
  store ptr null, ptr %retval, align 8
  br label %return

if.end46:                                         ; preds = %if.end41
  br label %if.end49

if.else47:                                        ; preds = %if.else35
  call void @ERR_put_error(i32 noundef 20, i32 noundef 0, i32 noundef 115, ptr noundef @.str, i32 noundef 163)
  %39 = load i32, ptr %ext_nid.addr, align 4
  %call48 = call ptr @OBJ_nid2sn(i32 noundef %39)
  call void (i32, ...) @ERR_add_error_data(i32 noundef 2, ptr noundef @.str.1, ptr noundef %call48)
  store ptr null, ptr %retval, align 8
  br label %return

if.end49:                                         ; preds = %if.end46
  br label %if.end50

if.end50:                                         ; preds = %if.end49, %if.end34
  br label %if.end51

if.end51:                                         ; preds = %if.end50, %if.end26
  %40 = load ptr, ptr %method, align 8
  %41 = load i32, ptr %ext_nid.addr, align 4
  %42 = load i32, ptr %crit.addr, align 4
  %43 = load ptr, ptr %ext_struc, align 8
  %call52 = call ptr @do_ext_i2d(ptr noundef %40, i32 noundef %41, i32 noundef %42, ptr noundef %43)
  store ptr %call52, ptr %ext, align 8
  %44 = load ptr, ptr %method, align 8
  %it = getelementptr inbounds %struct.v3_ext_method, ptr %44, i32 0, i32 2
  %45 = load ptr, ptr %it, align 8
  %tobool53 = icmp ne ptr %45, null
  br i1 %tobool53, label %if.then54, label %if.else56

if.then54:                                        ; preds = %if.end51
  %46 = load ptr, ptr %ext_struc, align 8
  %47 = load ptr, ptr %method, align 8
  %it55 = getelementptr inbounds %struct.v3_ext_method, ptr %47, i32 0, i32 2
  %48 = load ptr, ptr %it55, align 8
  call void @ASN1_item_free(ptr noundef %46, ptr noundef %48)
  br label %if.end57

if.else56:                                        ; preds = %if.end51
  %49 = load ptr, ptr %method, align 8
  %ext_free = getelementptr inbounds %struct.v3_ext_method, ptr %49, i32 0, i32 4
  %50 = load ptr, ptr %ext_free, align 8
  %51 = load ptr, ptr %ext_struc, align 8
  call void %50(ptr noundef %51)
  br label %if.end57

if.end57:                                         ; preds = %if.else56, %if.then54
  %52 = load ptr, ptr %ext, align 8
  store ptr %52, ptr %retval, align 8
  br label %return

return:                                           ; preds = %if.end57, %if.else47, %if.then45, %if.then40, %if.then33, %if.then25, %if.then14, %if.then1, %if.then
  %53 = load ptr, ptr %retval, align 8
  ret ptr %53
}