; Function Attrs: nounwind uwtable
define internal fastcc ptr @do_ext_nconf(ptr noundef %conf, ptr noundef %ctx, i32 noundef %ext_nid, i32 noundef range(i32 0, 2) %crit, ptr noundef %value) unnamed_addr #0 {
entry:
  %cmp = icmp eq i32 %ext_nid, 0
  br i1 %cmp, label %if.then, label %if.end

if.then:                                          ; preds = %entry
  tail call void @ERR_put_error(i32 noundef 20, i32 noundef 0, i32 noundef 158, ptr noundef nonnull @.str, i32 noundef 128) #10
  br label %return

if.end:                                           ; preds = %entry
  %call = tail call ptr @X509V3_EXT_get_nid(i32 noundef %ext_nid) #10
  %tobool.not = icmp eq ptr %call, null
  br i1 %tobool.not, label %if.then1, label %if.end2

if.then1:                                         ; preds = %if.end
  tail call void @ERR_put_error(i32 noundef 20, i32 noundef 0, i32 noundef 157, ptr noundef nonnull @.str, i32 noundef 132) #10
  br label %return

if.end2:                                          ; preds = %if.end
  %v2i = getelementptr inbounds nuw i8, ptr %call, i64 72
  %0 = load ptr, ptr %v2i, align 8
  %tobool3.not = icmp eq ptr %0, null
  br i1 %tobool3.not, label %if.else27, label %if.then4

if.then4:                                         ; preds = %if.end2
  %1 = load i8, ptr %value, align 1
  %cmp5 = icmp eq i8 %1, 64
  br i1 %cmp5, label %if.then7, label %if.else

if.then7:                                         ; preds = %if.then4
  %add.ptr = getelementptr inbounds nuw i8, ptr %value, i64 1
  %call8 = tail call ptr @NCONF_get_section(ptr noundef %conf, ptr noundef nonnull %add.ptr) #10
  br label %if.end10

if.else:                                          ; preds = %if.then4
  %call9 = tail call ptr @X509V3_parse_list(ptr noundef nonnull %value) #10
  br label %if.end10

if.end10:                                         ; preds = %if.else, %if.then7
  %nval.0 = phi ptr [ %call8, %if.then7 ], [ %call9, %if.else ]
  %call11 = tail call i64 @sk_num(ptr noundef %nval.0) #10
  %cmp12 = icmp eq i64 %call11, 0
  br i1 %cmp12, label %if.then14, label %if.end16

if.then14:                                        ; preds = %if.end10
  tail call void @ERR_put_error(i32 noundef 20, i32 noundef 0, i32 noundef 121, ptr noundef nonnull @.str, i32 noundef 142) #10
  %call15 = tail call ptr @OBJ_nid2sn(i32 noundef %ext_nid) #10
  tail call void (i32, ...) @ERR_add_error_data(i32 noundef 4, ptr noundef nonnull @.str.1, ptr noundef %call15, ptr noundef nonnull @.str.3, ptr noundef nonnull %value) #10
  br label %return

if.end16:                                         ; preds = %if.end10
  %2 = load ptr, ptr %v2i, align 8
  %call18 = tail call ptr %2(ptr noundef nonnull %call, ptr noundef %ctx, ptr noundef %nval.0) #10
  %3 = load i8, ptr %value, align 1
  %cmp20.not = icmp eq i8 %3, 64
  br i1 %cmp20.not, label %if.end23, label %if.then22

if.then22:                                        ; preds = %if.end16
  tail call void @sk_pop_free(ptr noundef %nval.0, ptr noundef nonnull @X509V3_conf_free) #10
  br label %if.end23

if.end23:                                         ; preds = %if.then22, %if.end16
  %tobool24.not = icmp eq ptr %call18, null
  br i1 %tobool24.not, label %return, label %if.end51

if.else27:                                        ; preds = %if.end2
  %s2i = getelementptr inbounds nuw i8, ptr %call, i64 56
  %4 = load ptr, ptr %s2i, align 8
  %tobool28.not = icmp eq ptr %4, null
  br i1 %tobool28.not, label %if.else35, label %if.then29

if.then29:                                        ; preds = %if.else27
  %call31 = tail call ptr %4(ptr noundef nonnull %call, ptr noundef %ctx, ptr noundef %value) #10
  %tobool32.not = icmp eq ptr %call31, null
  br i1 %tobool32.not, label %return, label %if.end51

if.else35:                                        ; preds = %if.else27
  %r2i = getelementptr inbounds nuw i8, ptr %call, i64 88
  %5 = load ptr, ptr %r2i, align 8
  %tobool36.not = icmp eq ptr %5, null
  br i1 %tobool36.not, label %if.else47, label %if.then37

if.then37:                                        ; preds = %if.else35
  %db = getelementptr inbounds nuw i8, ptr %ctx, i64 48
  %6 = load ptr, ptr %db, align 8
  %tobool38.not = icmp eq ptr %6, null
  br i1 %tobool38.not, label %if.then40, label %lor.lhs.false

lor.lhs.false:                                    ; preds = %if.then37
  %db_meth = getelementptr inbounds nuw i8, ptr %ctx, i64 40
  %7 = load ptr, ptr %db_meth, align 8
  %tobool39.not = icmp eq ptr %7, null
  br i1 %tobool39.not, label %if.then40, label %if.end41

if.then40:                                        ; preds = %lor.lhs.false, %if.then37
  tail call void @ERR_put_error(i32 noundef 20, i32 noundef 0, i32 noundef 139, ptr noundef nonnull @.str, i32 noundef 157) #10
  br label %return

if.end41:                                         ; preds = %lor.lhs.false
  %call43 = tail call ptr %5(ptr noundef nonnull %call, ptr noundef nonnull %ctx, ptr noundef %value) #10
  %tobool44.not = icmp eq ptr %call43, null
  br i1 %tobool44.not, label %return, label %if.end51

if.else47:                                        ; preds = %if.else35
  tail call void @ERR_put_error(i32 noundef 20, i32 noundef 0, i32 noundef 115, ptr noundef nonnull @.str, i32 noundef 163) #10
  %call48 = tail call ptr @OBJ_nid2sn(i32 noundef %ext_nid) #10
  tail call void (i32, ...) @ERR_add_error_data(i32 noundef 2, ptr noundef nonnull @.str.1, ptr noundef %call48) #10
  br label %return

if.end51:                                         ; preds = %if.then29, %if.end41, %if.end23
  %ext_struc.0 = phi ptr [ %call18, %if.end23 ], [ %call31, %if.then29 ], [ %call43, %if.end41 ]
  %call52 = tail call fastcc ptr @do_ext_i2d(ptr noundef %call, i32 noundef %ext_nid, i32 noundef %crit, ptr noundef nonnull %ext_struc.0)
  %it = getelementptr inbounds nuw i8, ptr %call, i64 8
  %8 = load ptr, ptr %it, align 8
  %tobool53.not = icmp eq ptr %8, null
  br i1 %tobool53.not, label %if.else56, label %if.then54

if.then54:                                        ; preds = %if.end51
  tail call void @ASN1_item_free(ptr noundef nonnull %ext_struc.0, ptr noundef nonnull %8) #10
  br label %return

if.else56:                                        ; preds = %if.end51
  %ext_free = getelementptr inbounds nuw i8, ptr %call, i64 24
  %9 = load ptr, ptr %ext_free, align 8
  tail call void %9(ptr noundef nonnull %ext_struc.0) #10
  br label %return

return:                                           ; preds = %if.then54, %if.else56, %if.end41, %if.then29, %if.end23, %if.else47, %if.then40, %if.then14, %if.then1, %if.then
  %retval.0 = phi ptr [ null, %if.then ], [ null, %if.then14 ], [ null, %if.then40 ], [ null, %if.else47 ], [ null, %if.then1 ], [ null, %if.end23 ], [ null, %if.then29 ], [ null, %if.end41 ], [ %call52, %if.else56 ], [ %call52, %if.then54 ]
  ret ptr %retval.0
}